target datalayout = "e-m:e-p270:32:32-p271:32:32-p272:64:64-i64:64-i128:128-f80:128-n8:16:32:64-S128"
target triple = "x86_64-pc-linux-gnu"

%struct.softfloat = type { i32, i32 }
%struct.DCAEncContext = type { ptr, %struct.PutBitContext, %struct.DCAADPCMEncContext, ptr, ptr, %struct.CompressionOptions, i32, i32, i32, i32, i32, i32, i32, i32, ptr, ptr, i32, %struct.softfloat, i32, ptr, [6 x [32 x i32]], [6 x [32 x [8 x i32]]], [6 x [512 x i32]], [6 x [32 x ptr]], [6 x [32 x [16 x i32]]], [6 x [32 x i32]], [6 x [32 x i32]], [8 x i32], [2 x [256 x i32]], [6 x i32], [6 x [32 x i32]], [6 x [32 x i32]], [6 x [32 x %struct.softfloat]], [6 x [10 x i32]], [256 x i32], [32 x i32], i32, i32, i32, i32, [2048 x i32], [2 x [512 x i32]], [2 x [8 x i32]], [9 x [25 x [256 x i32]]], [256 x i32], [2048 x i32], [512 x i32] }
%struct.PutBitContext = type { i32, i32, ptr, ptr, ptr }
%struct.DCAADPCMEncContext = type { ptr }
%struct.CompressionOptions = type { i32 }

@.str.10 = private unnamed_addr constant [30 x i8] c"Assertion %s failed at %s:%d\0A\00", align 1
@.str.11 = private unnamed_addr constant [13 x i8] c"peak_cb <= 0\00", align 1
@.str.12 = private unnamed_addr constant [20 x i8] c"libavcodec/dcaenc.c\00", align 1
@.str.13 = private unnamed_addr constant [17 x i8] c"peak_cb >= -2047\00", align 1
@ff_dca_quant_levels = external constant [32 x i32], align 16
@.str.14 = private unnamed_addr constant [69 x i8] c"(ff_dca_quant_levels[abits] - 1) / 2 >= quantize_value(peak, *quant)\00", align 1

; Function Attrs: inlinehint nounwind uwtable
define internal i32 @norm__(i64 noundef %0, i32 noundef %1) #9 {
  %3 = alloca i32, align 4
  %4 = alloca i64, align 8
  %5 = alloca i32, align 4
  store i64 %0, ptr %4, align 8, !tbaa !171
  store i32 %1, ptr %5, align 4, !tbaa !32
  %6 = load i32, ptr %5, align 4, !tbaa !32
  %7 = icmp sgt i32 %6, 0
  br i1 %7, label %8, label %19

8:                                                ; preds = %2
  %9 = load i64, ptr %4, align 8, !tbaa !171
  %10 = load i32, ptr %5, align 4, !tbaa !32
  %11 = sub nsw i32 %10, 1
  %12 = zext i32 %11 to i64
  %13 = shl i64 1, %12
  %14 = add nsw i64 %9, %13
  %15 = load i32, ptr %5, align 4, !tbaa !32
  %16 = zext i32 %15 to i64
  %17 = ashr i64 %14, %16
  %18 = trunc i64 %17 to i32
  store i32 %18, ptr %3, align 4
  br label %22

19:                                               ; preds = %2
  %20 = load i64, ptr %4, align 8, !tbaa !171
  %21 = trunc i64 %20 to i32
  store i32 %21, ptr %3, align 4
  br label %22

22:                                               ; preds = %19, %8
  %23 = load i32, ptr %3, align 4
  ret i32 %23
}

; Function Attrs: inlinehint nounwind uwtable
define internal i32 @mul__(i32 noundef %0, i32 noundef %1, i32 noundef %2) #9 {
  %4 = alloca i32, align 4
  %5 = alloca i32, align 4
  %6 = alloca i32, align 4
  store i32 %0, ptr %4, align 4, !tbaa !32
  store i32 %1, ptr %5, align 4, !tbaa !32
  store i32 %2, ptr %6, align 4, !tbaa !32
  %7 = load i32, ptr %4, align 4, !tbaa !32
  %8 = sext i32 %7 to i64
  %9 = load i32, ptr %5, align 4, !tbaa !32
  %10 = sext i32 %9 to i64
  %11 = mul nsw i64 %8, %10
  %12 = load i32, ptr %6, align 4, !tbaa !32
  %13 = call i32 @norm__(i64 noundef %11, i32 noundef %12)
  ret i32 %13
}

; Function Attrs: inlinehint nounwind uwtable
define internal i32 @quantize_value(i32 noundef %0, i64 %1) #9 {
  %3 = alloca %struct.softfloat, align 4
  %4 = alloca i32, align 4
  %5 = alloca i32, align 4
  store i64 %1, ptr %3, align 4
  store i32 %0, ptr %4, align 4, !tbaa !32
  call void @llvm.lifetime.start.p0(i64 4, ptr %5) #12
  %6 = getelementptr inbounds nuw %struct.softfloat, ptr %3, i32 0, i32 1
  %7 = load i32, ptr %6, align 4, !tbaa !196
  %8 = sub nsw i32 %7, 1
  %9 = shl i32 1, %8
  store i32 %9, ptr %5, align 4, !tbaa !32
  %10 = load i32, ptr %4, align 4, !tbaa !32
  %11 = getelementptr inbounds nuw %struct.softfloat, ptr %3, i32 0, i32 0
  %12 = load i32, ptr %11, align 4, !tbaa !197
  %13 = call i32 @mul32(i32 noundef %10, i32 noundef %12)
  %14 = load i32, ptr %5, align 4, !tbaa !32
  %15 = add nsw i32 %13, %14
  store i32 %15, ptr %4, align 4, !tbaa !32
  %16 = load i32, ptr %4, align 4, !tbaa !32
  %17 = getelementptr inbounds nuw %struct.softfloat, ptr %3, i32 0, i32 1
  %18 = load i32, ptr %17, align 4, !tbaa !196
  %19 = ashr i32 %16, %18
  store i32 %19, ptr %4, align 4, !tbaa !32
  %20 = load i32, ptr %4, align 4, !tbaa !32
  call void @llvm.lifetime.end.p0(i64 4, ptr %5) #12
  ret i32 %20
}

; Function Attrs: inlinehint nounwind uwtable
define internal i32 @mul32(i32 noundef %0, i32 noundef %1) #9 {
  %3 = alloca i32, align 4
  %4 = alloca i32, align 4
  store i32 %0, ptr %3, align 4, !tbaa !32
  store i32 %1, ptr %4, align 4, !tbaa !32
  %5 = load i32, ptr %3, align 4, !tbaa !32
  %6 = load i32, ptr %4, align 4, !tbaa !32
  %7 = call i32 @mul__(i32 noundef %5, i32 noundef %6, i32 noundef 32)
  ret i32 %7
}

; Function Attrs: nounwind uwtable
define internal i32 @calc_one_scale(ptr noundef %0, i32 noundef %1, i32 noundef %2, ptr noundef %3) #1 {
  %5 = alloca ptr, align 8
  %6 = alloca i32, align 4
  %7 = alloca i32, align 4
  %8 = alloca ptr, align 8
  %9 = alloca i32, align 4
  %10 = alloca i32, align 4
  %11 = alloca i32, align 4
  %12 = alloca %struct.softfloat, align 4
  store ptr %0, ptr %5, align 8, !tbaa !29
  store i32 %1, ptr %6, align 4, !tbaa !32
  store i32 %2, ptr %7, align 4, !tbaa !32
  store ptr %3, ptr %8, align 8, !tbaa !34
  call void @llvm.lifetime.start.p0(i64 4, ptr %9) #12
  call void @llvm.lifetime.start.p0(i64 4, ptr %10) #12
  call void @llvm.lifetime.start.p0(i64 4, ptr %11) #12
  call void @llvm.lifetime.start.p0(i64 8, ptr %12) #12
  br label %13

13:                                               ; preds = %4
  %14 = load i32, ptr %6, align 4, !tbaa !32
  %15 = icmp sle i32 %14, 0
  br i1 %15, label %17, label %16

16:                                               ; preds = %13
  call void (ptr, i32, ptr, ...) @av_log(ptr noundef null, i32 noundef 0, ptr noundef @.str.10, ptr noundef @.str.11, ptr noundef @.str.12, i32 noundef 697)
  call void @abort() #14
  unreachable

17:                                               ; preds = %13
  br label %18

18:                                               ; preds = %17
  br label %19

19:                                               ; preds = %18
  br label %20

20:                                               ; preds = %19
  %21 = load i32, ptr %6, align 4, !tbaa !32
  %22 = icmp sge i32 %21, -2047
  br i1 %22, label %24, label %23

23:                                               ; preds = %20
  call void (ptr, i32, ptr, ...) @av_log(ptr noundef null, i32 noundef 0, ptr noundef @.str.10, ptr noundef @.str.13, ptr noundef @.str.12, i32 noundef 698)
  call void @abort() #14
  unreachable

24:                                               ; preds = %20
  br label %25

25:                                               ; preds = %24
  br label %26

26:                                               ; preds = %25
  store i32 127, ptr %10, align 4, !tbaa !32
  %27 = load ptr, ptr %5, align 8, !tbaa !29
  %28 = getelementptr inbounds nuw %struct.DCAEncContext, ptr %27, i32 0, i32 45
  %29 = load i32, ptr %6, align 4, !tbaa !32
  %30 = sub nsw i32 0, %29
  %31 = sext i32 %30 to i64
  %32 = getelementptr inbounds [2048 x i32], ptr %28, i64 0, i64 %31
  %33 = load i32, ptr %32, align 4, !tbaa !32
  store i32 %33, ptr %9, align 4, !tbaa !32
  store i32 64, ptr %11, align 4, !tbaa !32
  br label %34

34:                                               ; preds = %98, %26
  %35 = load i32, ptr %11, align 4, !tbaa !32
  %36 = icmp sgt i32 %35, 0
  br i1 %36, label %37, label %101

37:                                               ; preds = %34
  %38 = load i32, ptr %10, align 4, !tbaa !32
  %39 = load i32, ptr %11, align 4, !tbaa !32
  %40 = sub nsw i32 %38, %39
  %41 = sext i32 %40 to i64
  %42 = getelementptr inbounds [128 x %struct.softfloat], ptr @scalefactor_inv, i64 0, i64 %41
  %43 = getelementptr inbounds nuw %struct.softfloat, ptr %42, i32 0, i32 1
  %44 = load i32, ptr %43, align 4, !tbaa !196
  %45 = load i32, ptr %7, align 4, !tbaa !32
  %46 = sext i32 %45 to i64
  %47 = getelementptr inbounds [27 x %struct.softfloat], ptr @stepsize_inv, i64 0, i64 %46
  %48 = getelementptr inbounds nuw %struct.softfloat, ptr %47, i32 0, i32 1
  %49 = load i32, ptr %48, align 4, !tbaa !196
  %50 = add nsw i32 %44, %49
  %51 = icmp sle i32 %50, 17
  br i1 %51, label %52, label %53

52:                                               ; preds = %37
  br label %98

53:                                               ; preds = %37
  %54 = load i32, ptr %10, align 4, !tbaa !32
  %55 = load i32, ptr %11, align 4, !tbaa !32
  %56 = sub nsw i32 %54, %55
  %57 = sext i32 %56 to i64
  %58 = getelementptr inbounds [128 x %struct.softfloat], ptr @scalefactor_inv, i64 0, i64 %57
  %59 = getelementptr inbounds nuw %struct.softfloat, ptr %58, i32 0, i32 0
  %60 = load i32, ptr %59, align 8, !tbaa !197
  %61 = load i32, ptr %7, align 4, !tbaa !32
  %62 = sext i32 %61 to i64
  %63 = getelementptr inbounds [27 x %struct.softfloat], ptr @stepsize_inv, i64 0, i64 %62
  %64 = getelementptr inbounds nuw %struct.softfloat, ptr %63, i32 0, i32 0
  %65 = load i32, ptr %64, align 8, !tbaa !197
  %66 = call i32 @mul32(i32 noundef %60, i32 noundef %65)
  %67 = getelementptr inbounds nuw %struct.softfloat, ptr %12, i32 0, i32 0
  store i32 %66, ptr %67, align 4, !tbaa !197
  %68 = load i32, ptr %10, align 4, !tbaa !32
  %69 = load i32, ptr %11, align 4, !tbaa !32
  %70 = sub nsw i32 %68, %69
  %71 = sext i32 %70 to i64
  %72 = getelementptr inbounds [128 x %struct.softfloat], ptr @scalefactor_inv, i64 0, i64 %71
  %73 = getelementptr inbounds nuw %struct.softfloat, ptr %72, i32 0, i32 1
  %74 = load i32, ptr %73, align 4, !tbaa !196
  %75 = load i32, ptr %7, align 4, !tbaa !32
  %76 = sext i32 %75 to i64
  %77 = getelementptr inbounds [27 x %struct.softfloat], ptr @stepsize_inv, i64 0, i64 %76
  %78 = getelementptr inbounds nuw %struct.softfloat, ptr %77, i32 0, i32 1
  %79 = load i32, ptr %78, align 4, !tbaa !196
  %80 = add nsw i32 %74, %79
  %81 = sub nsw i32 %80, 17
  %82 = getelementptr inbounds nuw %struct.softfloat, ptr %12, i32 0, i32 1
  store i32 %81, ptr %82, align 4, !tbaa !196
  %83 = load i32, ptr %7, align 4, !tbaa !32
  %84 = sext i32 %83 to i64
  %85 = getelementptr inbounds [32 x i32], ptr @ff_dca_quant_levels, i64 0, i64 %84
  %86 = load i32, ptr %85, align 4, !tbaa !32
  %87 = sub i32 %86, 1
  %88 = udiv i32 %87, 2
  %89 = load i32, ptr %9, align 4, !tbaa !32
  %90 = load i64, ptr %12, align 4
  %91 = call i32 @quantize_value(i32 noundef %89, i64 %90)
  %92 = icmp ult i32 %88, %91
  br i1 %92, label %93, label %94

93:                                               ; preds = %53
  br label %98

94:                                               ; preds = %53
  %95 = load i32, ptr %11, align 4, !tbaa !32
  %96 = load i32, ptr %10, align 4, !tbaa !32
  %97 = sub nsw i32 %96, %95
  store i32 %97, ptr %10, align 4, !tbaa !32
  br label %98

98:                                               ; preds = %94, %93, %52
  %99 = load i32, ptr %11, align 4, !tbaa !32
  %100 = ashr i32 %99, 1
  store i32 %100, ptr %11, align 4, !tbaa !32
  br label %34, !llvm.loop !198

101:                                              ; preds = %34
  %102 = load i32, ptr %10, align 4, !tbaa !32
  %103 = icmp sge i32 %102, 125
  br i1 %103, label %104, label %105

104:                                              ; preds = %101
  store i32 124, ptr %10, align 4, !tbaa !32
  br label %105

105:                                              ; preds = %104, %101
  %106 = load i32, ptr %10, align 4, !tbaa !32
  %107 = sext i32 %106 to i64
  %108 = getelementptr inbounds [128 x %struct.softfloat], ptr @scalefactor_inv, i64 0, i64 %107
  %109 = getelementptr inbounds nuw %struct.softfloat, ptr %108, i32 0, i32 0
  %110 = load i32, ptr %109, align 8, !tbaa !197
  %111 = load i32, ptr %7, align 4, !tbaa !32
  %112 = sext i32 %111 to i64
  %113 = getelementptr inbounds [27 x %struct.softfloat], ptr @stepsize_inv, i64 0, i64 %112
  %114 = getelementptr inbounds nuw %struct.softfloat, ptr %113, i32 0, i32 0
  %115 = load i32, ptr %114, align 8, !tbaa !197
  %116 = call i32 @mul32(i32 noundef %110, i32 noundef %115)
  %117 = load ptr, ptr %8, align 8, !tbaa !34
  %118 = getelementptr inbounds nuw %struct.softfloat, ptr %117, i32 0, i32 0
  store i32 %116, ptr %118, align 4, !tbaa !197
  %119 = load i32, ptr %10, align 4, !tbaa !32
  %120 = sext i32 %119 to i64
  %121 = getelementptr inbounds [128 x %struct.softfloat], ptr @scalefactor_inv, i64 0, i64 %120
  %122 = getelementptr inbounds nuw %struct.softfloat, ptr %121, i32 0, i32 1
  %123 = load i32, ptr %122, align 4, !tbaa !196
  %124 = load i32, ptr %7, align 4, !tbaa !32
  %125 = sext i32 %124 to i64
  %126 = getelementptr inbounds [27 x %struct.softfloat], ptr @stepsize_inv, i64 0, i64 %125
  %127 = getelementptr inbounds nuw %struct.softfloat, ptr %126, i32 0, i32 1
  %128 = load i32, ptr %127, align 4, !tbaa !196
  %129 = add nsw i32 %123, %128
  %130 = sub nsw i32 %129, 17
  %131 = load ptr, ptr %8, align 8, !tbaa !34
  %132 = getelementptr inbounds nuw %struct.softfloat, ptr %131, i32 0, i32 1
  store i32 %130, ptr %132, align 4, !tbaa !196
  br label %133

133:                                              ; preds = %105
  %134 = load i32, ptr %7, align 4, !tbaa !32
  %135 = sext i32 %134 to i64
  %136 = getelementptr inbounds [32 x i32], ptr @ff_dca_quant_levels, i64 0, i64 %135
  %137 = load i32, ptr %136, align 4, !tbaa !32
  %138 = sub i32 %137, 1
  %139 = udiv i32 %138, 2
  %140 = load i32, ptr %9, align 4, !tbaa !32
  %141 = load ptr, ptr %8, align 8, !tbaa !34
  %142 = load i64, ptr %141, align 4
  %143 = call i32 @quantize_value(i32 noundef %140, i64 %142)
  %144 = icmp uge i32 %139, %143
  br i1 %144, label %146, label %145

145:                                              ; preds = %133
  call void (ptr, i32, ptr, ...) @av_log(ptr noundef null, i32 noundef 0, ptr noundef @.str.10, ptr noundef @.str.14, ptr noundef @.str.12, i32 noundef 718)
  call void @abort() #14
  unreachable

146:                                              ; preds = %133
  br label %147

147:                                              ; preds = %146
  br label %148

148:                                              ; preds = %147
  %149 = load i32, ptr %10, align 4, !tbaa !32
  call void @llvm.lifetime.end.p0(i64 8, ptr %12) #12
  call void @llvm.lifetime.end.p0(i64 4, ptr %11) #12
  call void @llvm.lifetime.end.p0(i64 4, ptr %10) #12
  call void @llvm.lifetime.end.p0(i64 4, ptr %9) #12
  ret i32 %149
}