; Function Attrs: nounwind uwtable
define internal fastcc range(i32 -2147483648, 125) i32 @calc_one_scale(ptr noundef readonly captures(none) %0, i32 noundef %1, i32 noundef %2, ptr noundef captures(none) %3) unnamed_addr #1 {
  %5 = icmp slt i32 %1, 1
  br i1 %5, label %7, label %6

6:                                                ; preds = %4
  tail call void (ptr, i32, ptr, ...) @av_log(ptr noundef null, i32 noundef 0, ptr noundef nonnull @.str.10, ptr noundef nonnull @.str.11, ptr noundef nonnull @.str.12, i32 noundef 697) #11
  tail call void @abort() #13
  unreachable

7:                                                ; preds = %4
  %8 = icmp sgt i32 %1, -2048
  br i1 %8, label %10, label %9

9:                                                ; preds = %7
  tail call void (ptr, i32, ptr, ...) @av_log(ptr noundef null, i32 noundef 0, ptr noundef nonnull @.str.10, ptr noundef nonnull @.str.13, ptr noundef nonnull @.str.12, i32 noundef 698) #11
  tail call void @abort() #13
  unreachable

10:                                               ; preds = %7
  %11 = getelementptr inbounds nuw i8, ptr %0, i64 285064
  %12 = sub nsw i32 0, %1
  %13 = zext nneg i32 %12 to i64
  %14 = getelementptr inbounds nuw [2048 x i32], ptr %11, i64 0, i64 %13
  %15 = load i32, ptr %14, align 4, !tbaa !27
  %16 = sext i32 %2 to i64
  %17 = getelementptr inbounds [27 x %struct.softfloat], ptr @stepsize_inv, i64 0, i64 %16
  %18 = getelementptr inbounds nuw i8, ptr %17, i64 4
  %19 = load i32, ptr %18, align 4, !tbaa !192
  %20 = getelementptr inbounds [32 x i32], ptr @ff_dca_quant_levels, i64 0, i64 %16
  %21 = sext i32 %15 to i64
  br label %22

22:                                               ; preds = %10, %50
  %.036 = phi i32 [ 127, %10 ], [ %.1, %50 ]
  %.02935 = phi i32 [ 64, %10 ], [ %51, %50 ]
  %23 = sub nsw i32 %.036, %.02935
  %24 = sext i32 %23 to i64
  %25 = getelementptr inbounds [128 x %struct.softfloat], ptr @scalefactor_inv, i64 0, i64 %24
  %26 = getelementptr inbounds nuw i8, ptr %25, i64 4
  %27 = load i32, ptr %26, align 4, !tbaa !192
  %28 = add nsw i32 %19, %27
  %29 = icmp slt i32 %28, 18
  br i1 %29, label %50, label %30

30:                                               ; preds = %22
  %31 = load i32, ptr %25, align 8, !tbaa !193
  %32 = load i32, ptr %17, align 8, !tbaa !193
  %33 = sext i32 %31 to i64
  %34 = sext i32 %32 to i64
  %35 = mul nsw i64 %34, %33
  %36 = add nsw i64 %35, 2147483648
  %37 = add nsw i32 %28, -17
  %38 = load i32, ptr %20, align 4, !tbaa !27
  %39 = add i32 %38, -1
  %40 = lshr i32 %39, 1
  %41 = add nsw i32 %28, -18
  %42 = shl nuw i32 1, %41
  %43 = ashr i64 %36, 32
  %44 = mul nsw i64 %43, %21
  %45 = add nsw i64 %44, 2147483648
  %46 = lshr i64 %45, 32
  %.0.i.i.i.i = trunc nuw i64 %46 to i32
  %47 = add nsw i32 %42, %.0.i.i.i.i
  %48 = ashr i32 %47, %37
  %49 = icmp ult i32 %40, %48
  %spec.select = select i1 %49, i32 %.036, i32 %23
  br label %50

50:                                               ; preds = %30, %22
  %.1 = phi i32 [ %.036, %22 ], [ %spec.select, %30 ]
  %51 = lshr i32 %.02935, 1
  %.not = icmp samesign ult i32 %.02935, 2
  br i1 %.not, label %52, label %22, !llvm.loop !194

52:                                               ; preds = %50
  %spec.store.select = tail call i32 @llvm.smin.i32(i32 %.1, i32 124)
  %53 = sext i32 %spec.store.select to i64
  %54 = getelementptr inbounds [128 x %struct.softfloat], ptr @scalefactor_inv, i64 0, i64 %53
  %55 = load i32, ptr %54, align 8, !tbaa !193
  %56 = load i32, ptr %17, align 8, !tbaa !193
  %57 = sext i32 %55 to i64
  %58 = sext i32 %56 to i64
  %59 = mul nsw i64 %58, %57
  %60 = add nsw i64 %59, 2147483648
  %61 = lshr i64 %60, 32
  %.0.i.i.i32 = trunc nuw i64 %61 to i32
  store i32 %.0.i.i.i32, ptr %3, align 4, !tbaa !193
  %62 = getelementptr inbounds nuw i8, ptr %54, i64 4
  %63 = load i32, ptr %62, align 4, !tbaa !192
  %64 = add i32 %63, -17
  %65 = add i32 %64, %19
  %66 = getelementptr inbounds nuw i8, ptr %3, i64 4
  store i32 %65, ptr %66, align 4, !tbaa !192
  %67 = load i32, ptr %20, align 4, !tbaa !27
  %68 = add i32 %67, -1
  %69 = lshr i32 %68, 1
  %70 = load i64, ptr %3, align 4
  %.sroa.2.0.extract.shift.i = lshr i64 %70, 32
  %.sroa.2.0.extract.trunc.i = trunc nuw i64 %.sroa.2.0.extract.shift.i to i32
  %71 = add nsw i32 %.sroa.2.0.extract.trunc.i, -1
  %72 = shl nuw i32 1, %71
  %sext.i33 = shl i64 %70, 32
  %73 = ashr exact i64 %sext.i33, 32
  %74 = mul nsw i64 %73, %21
  %75 = add nsw i64 %74, 2147483648
  %76 = lshr i64 %75, 32
  %.0.i.i.i.i34 = trunc nuw i64 %76 to i32
  %77 = add nsw i32 %72, %.0.i.i.i.i34
  %78 = ashr i32 %77, %.sroa.2.0.extract.trunc.i
  %.not31 = icmp ult i32 %69, %78
  br i1 %.not31, label %79, label %80

79:                                               ; preds = %52
  tail call void (ptr, i32, ptr, ...) @av_log(ptr noundef null, i32 noundef 0, ptr noundef nonnull @.str.10, ptr noundef nonnull @.str.14, ptr noundef nonnull @.str.12, i32 noundef 718) #11
  tail call void @abort() #13
  unreachable

80:                                               ; preds = %52
  ret i32 %spec.store.select
}